target datalayout = "e-m:e-p270:32:32-p271:32:32-p272:64:64-i64:64-i128:128-f80:128-n8:16:32:64-S128"
target triple = "x86_64-pc-linux-gnu"

%struct.timespec = type { i64, i64 }
%struct.uv_timespec64_t = type { i64, i32 }

; Function Attrs: nounwind uwtable
define dso_local i32 @uv_clock_gettime(i32 noundef %0, ptr noundef %1) #0 {
  %3 = alloca i32, align 4
  %4 = alloca i32, align 4
  %5 = alloca ptr, align 8
  %6 = alloca %struct.timespec, align 8
  %7 = alloca i32, align 4
  %8 = alloca i32, align 4
  store i32 %0, ptr %4, align 4
  store ptr %1, ptr %5, align 8
  call void @llvm.lifetime.start.p0(i64 16, ptr %6) #11
  call void @llvm.lifetime.start.p0(i64 4, ptr %7) #11
  %9 = load ptr, ptr %5, align 8
  %10 = icmp eq ptr %9, null
  br i1 %10, label %11, label %12

11:                                               ; preds = %2
  store i32 -14, ptr %3, align 4
  store i32 1, ptr %8, align 4
  br label %36

12:                                               ; preds = %2
  %13 = load i32, ptr %4, align 4
  switch i32 %13, label %14 [
    i32 0, label %15
    i32 1, label %17
  ]

14:                                               ; preds = %12
  store i32 -22, ptr %3, align 4
  store i32 1, ptr %8, align 4
  br label %36

15:                                               ; preds = %12
  %16 = call i32 @clock_gettime(i32 noundef 1, ptr noundef %6) #11
  store i32 %16, ptr %7, align 4
  br label %19

17:                                               ; preds = %12
  %18 = call i32 @clock_gettime(i32 noundef 0, ptr noundef %6) #11
  store i32 %18, ptr %7, align 4
  br label %19

19:                                               ; preds = %17, %15
  %20 = load i32, ptr %7, align 4
  %21 = icmp ne i32 %20, 0
  br i1 %21, label %22, label %26

22:                                               ; preds = %19
  %23 = call ptr @__errno_location() #12
  %24 = load i32, ptr %23, align 4
  %25 = sub nsw i32 0, %24
  store i32 %25, ptr %3, align 4
  store i32 1, ptr %8, align 4
  br label %36

26:                                               ; preds = %19
  %27 = getelementptr inbounds nuw %struct.timespec, ptr %6, i32 0, i32 0
  %28 = load i64, ptr %27, align 8
  %29 = load ptr, ptr %5, align 8
  %30 = getelementptr inbounds nuw %struct.uv_timespec64_t, ptr %29, i32 0, i32 0
  store i64 %28, ptr %30, align 8
  %31 = getelementptr inbounds nuw %struct.timespec, ptr %6, i32 0, i32 1
  %32 = load i64, ptr %31, align 8
  %33 = trunc i64 %32 to i32
  %34 = load ptr, ptr %5, align 8
  %35 = getelementptr inbounds nuw %struct.uv_timespec64_t, ptr %34, i32 0, i32 1
  store i32 %33, ptr %35, align 8
  store i32 0, ptr %3, align 4
  store i32 1, ptr %8, align 4
  br label %36

36:                                               ; preds = %26, %22, %14, %11
  call void @llvm.lifetime.end.p0(i64 4, ptr %7) #11
  call void @llvm.lifetime.end.p0(i64 16, ptr %6) #11
  %37 = load i32, ptr %3, align 4
  ret i32 %37
}