; Function Attrs: nounwind uwtable
define dso_local range(i32 -2147483647, -2147483648) i32 @uv_clock_gettime(i32 noundef %0, ptr noundef writeonly captures(address_is_null) %1) local_unnamed_addr #0 {
  %3 = alloca %struct.timespec, align 8
  call void @llvm.lifetime.start.p0(i64 16, ptr nonnull %3) #23
  %4 = icmp eq ptr %1, null
  br i1 %4, label %19, label %5

5:                                                ; preds = %2
  switch i32 %0, label %19 [
    i32 0, label %7
    i32 1, label %6
  ]

6:                                                ; preds = %5
  br label %7

7:                                                ; preds = %5, %6
  %.sink = phi i32 [ 0, %6 ], [ 1, %5 ]
  %8 = call i32 @clock_gettime(i32 noundef %.sink, ptr noundef nonnull %3) #23
  %.not = icmp eq i32 %8, 0
  br i1 %.not, label %13, label %9

9:                                                ; preds = %7
  %10 = tail call ptr @__errno_location() #24
  %11 = load i32, ptr %10, align 4
  %12 = sub nsw i32 0, %11
  br label %19

13:                                               ; preds = %7
  %14 = load i64, ptr %3, align 8
  store i64 %14, ptr %1, align 8
  %15 = getelementptr inbounds nuw i8, ptr %3, i64 8
  %16 = load i64, ptr %15, align 8
  %17 = trunc i64 %16 to i32
  %18 = getelementptr inbounds nuw i8, ptr %1, i64 8
  store i32 %17, ptr %18, align 8
  br label %19

19:                                               ; preds = %5, %2, %13, %9
  %.05 = phi i32 [ %12, %9 ], [ 0, %13 ], [ -14, %2 ], [ -22, %5 ]
  call void @llvm.lifetime.end.p0(i64 16, ptr nonnull %3) #23
  ret i32 %.05
}